target datalayout = "e-m:e-p270:32:32-p271:32:32-p272:64:64-i64:64-i128:128-f80:128-n8:16:32:64-S128"
target triple = "x86_64-pc-linux-gnu"

%"class.std::__cxx11::basic_string" = type { %"struct.std::__cxx11::basic_string<char>::_Alloc_hider", i64, %union.anon }
%"struct.std::__cxx11::basic_string<char>::_Alloc_hider" = type { ptr }
%union.anon = type { i64, [8 x i8] }
%"class.nanogui::Color" = type { %"struct.nanogui::Array.4" }
%"struct.nanogui::Array.4" = type { [4 x float] }
%"struct.nanogui::Array" = type { [2 x i32] }
%"class.std::function.5" = type { %"class.std::_Function_base", ptr }
%"class.std::_Function_base" = type { %"union.std::_Any_data", ptr }
%"union.std::_Any_data" = type { %"union.std::_Nocopy_types" }
%"union.std::_Nocopy_types" = type { { i64, i64 } }
%"class.std::function.12" = type { %"class.std::_Function_base", ptr }
%"class.std::function" = type { %"class.std::_Function_base", ptr }
%"class.nanogui::ColorPicker" = type { %"class.nanogui::PopupButton.base", %"class.std::function.12", %"class.std::function.12", ptr, ptr, ptr }
%"class.nanogui::PopupButton.base" = type <{ %"class.nanogui::Button", ptr, i32 }>
%"class.nanogui::Button" = type { %"class.nanogui::Widget.base", %"class.std::__cxx11::basic_string", i32, i32, i8, i32, %"class.nanogui::Color", %"class.nanogui::Color", %"class.std::function", %"class.std::function.5", %"class.std::vector.7" }
%"class.nanogui::Widget.base" = type <{ %"class.nanogui::Object.base", [4 x i8], ptr, %"class.nanogui::ref", %"class.nanogui::ref.0", %"struct.nanogui::Array", %"struct.nanogui::Array", %"struct.nanogui::Array", %"class.std::vector", i8, i8, i8, i8, [4 x i8], %"class.std::__cxx11::basic_string", i32, float, i32 }>
%"class.nanogui::Object.base" = type <{ ptr, %"struct.std::atomic" }>
%"struct.std::atomic" = type { %"struct.std::__atomic_base" }
%"struct.std::__atomic_base" = type { i32 }
%"class.nanogui::ref" = type { ptr }
%"class.nanogui::ref.0" = type { ptr }
%"class.std::vector" = type { %"struct.std::_Vector_base" }
%"struct.std::_Vector_base" = type { %"struct.std::_Vector_base<nanogui::Widget *, std::allocator<nanogui::Widget *>>::_Vector_impl" }
%"struct.std::_Vector_base<nanogui::Widget *, std::allocator<nanogui::Widget *>>::_Vector_impl" = type { %"struct.std::_Vector_base<nanogui::Widget *, std::allocator<nanogui::Widget *>>::_Vector_impl_data" }
%"struct.std::_Vector_base<nanogui::Widget *, std::allocator<nanogui::Widget *>>::_Vector_impl_data" = type { ptr, ptr, ptr }
%"class.std::vector.7" = type { %"struct.std::_Vector_base.8" }
%"struct.std::_Vector_base.8" = type { %"struct.std::_Vector_base<nanogui::Button *, std::allocator<nanogui::Button *>>::_Vector_impl" }
%"struct.std::_Vector_base<nanogui::Button *, std::allocator<nanogui::Button *>>::_Vector_impl" = type { %"struct.std::_Vector_base<nanogui::Button *, std::allocator<nanogui::Button *>>::_Vector_impl_data" }
%"struct.std::_Vector_base<nanogui::Button *, std::allocator<nanogui::Button *>>::_Vector_impl_data" = type { ptr, ptr, ptr }
%"struct.nanogui::Array.21" = type { [3 x float] }

; Function Attrs: mustprogress nounwind uwtable
define linkonce_odr hidden noundef nonnull align 4 dereferenceable(4) ptr @_ZNK7nanogui5ArrayIfLm3EEixEm(ptr noundef nonnull align 4 dereferenceable(12) %0, i64 noundef %1) #4 comdat align 2 {
  %3 = alloca ptr, align 8
  %4 = alloca i64, align 8
  store ptr %0, ptr %3, align 8
  store i64 %1, ptr %4, align 8
  %5 = load ptr, ptr %3, align 8
  %6 = getelementptr inbounds %"struct.nanogui::Array.21", ptr %5, i32 0, i32 0
  %7 = load i64, ptr %4, align 8
  %8 = getelementptr inbounds [3 x float], ptr %6, i64 0, i64 %7
  ret ptr %8
}

; Function Attrs: mustprogress uwtable
define linkonce_odr hidden void @_ZN7nanogui5ColorC2ERKNS_5ArrayIfLm3EEEf(ptr noundef nonnull align 4 dereferenceable(16) %0, ptr noundef nonnull align 4 dereferenceable(12) %1, float noundef %2) unnamed_addr #2 comdat align 2 {
  %4 = alloca ptr, align 8
  %5 = alloca ptr, align 8
  %6 = alloca float, align 4
  store ptr %0, ptr %4, align 8
  store ptr %1, ptr %5, align 8
  store float %2, ptr %6, align 4
  %7 = load ptr, ptr %4, align 8
  %8 = load ptr, ptr %5, align 8
  %9 = call noundef nonnull align 4 dereferenceable(4) ptr @_ZNK7nanogui5ArrayIfLm3EEixEm(ptr noundef nonnull align 4 dereferenceable(12) %8, i64 noundef 0)
  %10 = load float, ptr %9, align 4
  %11 = load ptr, ptr %5, align 8
  %12 = call noundef nonnull align 4 dereferenceable(4) ptr @_ZNK7nanogui5ArrayIfLm3EEixEm(ptr noundef nonnull align 4 dereferenceable(12) %11, i64 noundef 1)
  %13 = load float, ptr %12, align 4
  %14 = load ptr, ptr %5, align 8
  %15 = call noundef nonnull align 4 dereferenceable(4) ptr @_ZNK7nanogui5ArrayIfLm3EEixEm(ptr noundef nonnull align 4 dereferenceable(12) %14, i64 noundef 2)
  %16 = load float, ptr %15, align 4
  %17 = load float, ptr %6, align 4
  call void @_ZN7nanogui5ColorC2Effff(ptr noundef nonnull align 4 dereferenceable(16) %7, float noundef %10, float noundef %13, float noundef %16, float noundef %17)
  ret void
}

; Function Attrs: mustprogress nounwind uwtable
define linkonce_odr hidden void @_ZN7nanogui5ArrayIfLm3EEC2Ef(ptr noundef nonnull align 4 dereferenceable(12) %0, float noundef %1) unnamed_addr #4 comdat align 2 {
  %3 = alloca ptr, align 8
  %4 = alloca float, align 4
  %5 = alloca i64, align 8
  store ptr %0, ptr %3, align 8
  store float %1, ptr %4, align 4
  %6 = load ptr, ptr %3, align 8
  store i64 0, ptr %5, align 8
  br label %7

7:                                                ; preds = %15, %2
  %8 = load i64, ptr %5, align 8
  %9 = icmp ult i64 %8, 3
  br i1 %9, label %10, label %18

10:                                               ; preds = %7
  %11 = load float, ptr %4, align 4
  %12 = getelementptr inbounds %"struct.nanogui::Array.21", ptr %6, i32 0, i32 0
  %13 = load i64, ptr %5, align 8
  %14 = getelementptr inbounds [3 x float], ptr %12, i64 0, i64 %13
  store float %11, ptr %14, align 4
  br label %15

15:                                               ; preds = %10
  %16 = load i64, ptr %5, align 8
  %17 = add i64 %16, 1
  store i64 %17, ptr %5, align 8
  br label %7, !llvm.loop !7

18:                                               ; preds = %7
  ret void
}

; Function Attrs: mustprogress nounwind uwtable
define linkonce_odr hidden void @_ZN7nanogui5ColorC2ERKNS_5ArrayIfLm4EEE(ptr noundef nonnull align 4 dereferenceable(16) %0, ptr noundef nonnull align 4 dereferenceable(16) %1) unnamed_addr #4 comdat align 2 {
  %3 = alloca ptr, align 8
  %4 = alloca ptr, align 8
  store ptr %0, ptr %3, align 8
  store ptr %1, ptr %4, align 8
  %5 = load ptr, ptr %3, align 8
  %6 = load ptr, ptr %4, align 8
  call void @llvm.memcpy.p0.p0.i64(ptr align 4 %5, ptr align 4 %6, i64 16, i1 false)
  ret void
}

; Function Attrs: mustprogress nounwind uwtable
define linkonce_odr hidden void @_ZN7nanogui5ArrayIfLm4EEC2ILm4ETnNSt9enable_ifIXeqT_Li4EEiE4typeELi0EEEffff(ptr noundef nonnull align 4 dereferenceable(16) %0, float noundef %1, float noundef %2, float noundef %3, float noundef %4) unnamed_addr #4 comdat align 2 {
  %6 = alloca ptr, align 8
  %7 = alloca float, align 4
  %8 = alloca float, align 4
  %9 = alloca float, align 4
  %10 = alloca float, align 4
  store ptr %0, ptr %6, align 8
  store float %1, ptr %7, align 4
  store float %2, ptr %8, align 4
  store float %3, ptr %9, align 4
  store float %4, ptr %10, align 4
  %11 = load ptr, ptr %6, align 8
  %12 = load float, ptr %7, align 4
  %13 = getelementptr inbounds %"struct.nanogui::Array.4", ptr %11, i32 0, i32 0
  %14 = getelementptr inbounds [4 x float], ptr %13, i64 0, i64 0
  store float %12, ptr %14, align 4
  %15 = load float, ptr %8, align 4
  %16 = getelementptr inbounds %"struct.nanogui::Array.4", ptr %11, i32 0, i32 0
  %17 = getelementptr inbounds [4 x float], ptr %16, i64 0, i64 1
  store float %15, ptr %17, align 4
  %18 = load float, ptr %9, align 4
  %19 = getelementptr inbounds %"struct.nanogui::Array.4", ptr %11, i32 0, i32 0
  %20 = getelementptr inbounds [4 x float], ptr %19, i64 0, i64 2
  store float %18, ptr %20, align 4
  %21 = load float, ptr %10, align 4
  %22 = getelementptr inbounds %"struct.nanogui::Array.4", ptr %11, i32 0, i32 0
  %23 = getelementptr inbounds [4 x float], ptr %22, i64 0, i64 3
  store float %21, ptr %23, align 4
  ret void
}

; Function Attrs: mustprogress uwtable
define linkonce_odr hidden void @_ZN7nanogui5ColorC2Eff(ptr noundef nonnull align 4 dereferenceable(16) %0, float noundef %1, float noundef %2) unnamed_addr #2 comdat align 2 {
  %4 = alloca ptr, align 8
  %5 = alloca float, align 4
  %6 = alloca float, align 4
  %7 = alloca %"struct.nanogui::Array.21", align 4
  store ptr %0, ptr %4, align 8
  store float %1, ptr %5, align 4
  store float %2, ptr %6, align 4
  %8 = load ptr, ptr %4, align 8
  %9 = load float, ptr %5, align 4
  call void @_ZN7nanogui5ArrayIfLm3EEC2Ef(ptr noundef nonnull align 4 dereferenceable(12) %7, float noundef %9)
  %10 = load float, ptr %6, align 4
  call void @_ZN7nanogui5ColorC2ERKNS_5ArrayIfLm3EEEf(ptr noundef nonnull align 4 dereferenceable(16) %8, ptr noundef nonnull align 4 dereferenceable(12) %7, float noundef %10)
  ret void
}

; Function Attrs: mustprogress nounwind uwtable
define linkonce_odr hidden noundef float @_ZN7nanogui3dotIfLm4EEET_RKNS_5ArrayIS1_XT0_EEES5_(ptr noundef nonnull align 4 dereferenceable(16) %0, ptr noundef nonnull align 4 dereferenceable(16) %1) #4 comdat {
  %3 = alloca ptr, align 8
  %4 = alloca ptr, align 8
  %5 = alloca float, align 4
  %6 = alloca i64, align 8
  store ptr %0, ptr %3, align 8
  store ptr %1, ptr %4, align 8
  %7 = load ptr, ptr %3, align 8
  %8 = getelementptr inbounds %"struct.nanogui::Array.4", ptr %7, i32 0, i32 0
  %9 = getelementptr inbounds [4 x float], ptr %8, i64 0, i64 0
  %10 = load float, ptr %9, align 4
  %11 = load ptr, ptr %4, align 8
  %12 = getelementptr inbounds %"struct.nanogui::Array.4", ptr %11, i32 0, i32 0
  %13 = getelementptr inbounds [4 x float], ptr %12, i64 0, i64 0
  %14 = load float, ptr %13, align 4
  %15 = fmul float %10, %14
  store float %15, ptr %5, align 4
  store i64 1, ptr %6, align 8
  br label %16

16:                                               ; preds = %32, %2
  %17 = load i64, ptr %6, align 8
  %18 = icmp ult i64 %17, 4
  br i1 %18, label %19, label %35

19:                                               ; preds = %16
  %20 = load ptr, ptr %3, align 8
  %21 = getelementptr inbounds %"struct.nanogui::Array.4", ptr %20, i32 0, i32 0
  %22 = load i64, ptr %6, align 8
  %23 = getelementptr inbounds [4 x float], ptr %21, i64 0, i64 %22
  %24 = load float, ptr %23, align 4
  %25 = load ptr, ptr %4, align 8
  %26 = getelementptr inbounds %"struct.nanogui::Array.4", ptr %25, i32 0, i32 0
  %27 = load i64, ptr %6, align 8
  %28 = getelementptr inbounds [4 x float], ptr %26, i64 0, i64 %27
  %29 = load float, ptr %28, align 4
  %30 = load float, ptr %5, align 4
  %31 = call float @llvm.fmuladd.f32(float %24, float %29, float %30)
  store float %31, ptr %5, align 4
  br label %32

32:                                               ; preds = %19
  %33 = load i64, ptr %6, align 8
  %34 = add i64 %33, 1
  store i64 %34, ptr %6, align 8
  br label %16, !llvm.loop !5

35:                                               ; preds = %16
  %36 = load float, ptr %5, align 4
  ret float %36
}

; Function Attrs: mustprogress uwtable
define linkonce_odr hidden void @_ZN7nanogui5ColorC2Effff(ptr noundef nonnull align 4 dereferenceable(16) %0, float noundef %1, float noundef %2, float noundef %3, float noundef %4) unnamed_addr #2 comdat align 2 {
  %6 = alloca ptr, align 8
  %7 = alloca float, align 4
  %8 = alloca float, align 4
  %9 = alloca float, align 4
  %10 = alloca float, align 4
  %11 = alloca %"struct.nanogui::Array.4", align 4
  store ptr %0, ptr %6, align 8
  store float %1, ptr %7, align 4
  store float %2, ptr %8, align 4
  store float %3, ptr %9, align 4
  store float %4, ptr %10, align 4
  %12 = load ptr, ptr %6, align 8
  %13 = load float, ptr %7, align 4
  %14 = load float, ptr %8, align 4
  %15 = load float, ptr %9, align 4
  %16 = load float, ptr %10, align 4
  call void @_ZN7nanogui5ArrayIfLm4EEC2ILm4ETnNSt9enable_ifIXeqT_Li4EEiE4typeELi0EEEffff(ptr noundef nonnull align 4 dereferenceable(16) %11, float noundef %13, float noundef %14, float noundef %15, float noundef %16)
  call void @_ZN7nanogui5ColorC2ERKNS_5ArrayIfLm4EEE(ptr noundef nonnull align 4 dereferenceable(16) %12, ptr noundef nonnull align 4 dereferenceable(16) %11)
  ret void
}

; Function Attrs: mustprogress nounwind uwtable
define linkonce_odr hidden void @_ZN7nanogui6Button14set_text_colorERKNS_5ColorE(ptr noundef nonnull align 8 dereferenceable(312) %0, ptr noundef nonnull align 4 dereferenceable(16) %1) #4 comdat align 2 {
  %3 = alloca ptr, align 8
  %4 = alloca ptr, align 8
  store ptr %0, ptr %3, align 8
  store ptr %1, ptr %4, align 8
  %5 = load ptr, ptr %3, align 8
  %6 = load ptr, ptr %4, align 8
  %7 = getelementptr inbounds %"class.nanogui::Button", ptr %5, i32 0, i32 7
  call void @llvm.memcpy.p0.p0.i64(ptr align 8 %7, ptr align 4 %6, i64 16, i1 false)
  ret void
}

; Function Attrs: mustprogress nounwind uwtable
define linkonce_odr hidden void @_ZN7nanogui6Button20set_background_colorERKNS_5ColorE(ptr noundef nonnull align 8 dereferenceable(312) %0, ptr noundef nonnull align 4 dereferenceable(16) %1) #4 comdat align 2 {
  %3 = alloca ptr, align 8
  %4 = alloca ptr, align 8
  store ptr %0, ptr %3, align 8
  store ptr %1, ptr %4, align 8
  %5 = load ptr, ptr %3, align 8
  %6 = load ptr, ptr %4, align 8
  %7 = getelementptr inbounds %"class.nanogui::Button", ptr %5, i32 0, i32 6
  call void @llvm.memcpy.p0.p0.i64(ptr align 8 %7, ptr align 4 %6, i64 16, i1 false)
  ret void
}

; Function Attrs: mustprogress uwtable
define linkonce_odr hidden { <2 x float>, <2 x float> } @_ZNK7nanogui5Color17contrasting_colorEv(ptr noundef nonnull align 4 dereferenceable(16) %0) #2 comdat align 2 {
  %2 = alloca %"class.nanogui::Color", align 4
  %3 = alloca ptr, align 8
  %4 = alloca float, align 4
  %5 = alloca %"class.nanogui::Color", align 4
  store ptr %0, ptr %3, align 8
  %6 = load ptr, ptr %3, align 8
  call void @_ZN7nanogui5ColorC2Effff(ptr noundef nonnull align 4 dereferenceable(16) %5, float noundef 0x3FD322D0E0000000, float noundef 0x3FE2C8B440000000, float noundef 0x3FC26E9780000000, float noundef 0.000000e+00)
  %7 = call noundef float @_ZN7nanogui3dotIfLm4EEET_RKNS_5ArrayIS1_XT0_EEES5_(ptr noundef nonnull align 4 dereferenceable(16) %6, ptr noundef nonnull align 4 dereferenceable(16) %5)
  store float %7, ptr %4, align 4
  %8 = load float, ptr %4, align 4
  %9 = fcmp olt float %8, 5.000000e-01
  %10 = select i1 %9, float 1.000000e+00, float 0.000000e+00
  call void @_ZN7nanogui5ColorC2Eff(ptr noundef nonnull align 4 dereferenceable(16) %2, float noundef %10, float noundef 1.000000e+00)
  %11 = getelementptr inbounds %"class.nanogui::Color", ptr %2, i32 0, i32 0
  %12 = getelementptr inbounds %"struct.nanogui::Array.4", ptr %11, i32 0, i32 0
  %13 = load { <2 x float>, <2 x float> }, ptr %12, align 4
  ret { <2 x float>, <2 x float> } %13
}

; Function Attrs: mustprogress uwtable
define hidden void @_ZN7nanogui11ColorPicker9set_colorERKNS_5ColorE(ptr noundef nonnull align 8 dereferenceable(416) %0, ptr noundef nonnull align 4 dereferenceable(16) %1) #0 align 2 {
  %3 = alloca ptr, align 8
  %4 = alloca ptr, align 8
  %5 = alloca %"class.nanogui::Color", align 4
  store ptr %0, ptr %3, align 8
  store ptr %1, ptr %4, align 8
  %6 = load ptr, ptr %3, align 8
  %7 = getelementptr inbounds %"class.nanogui::Button", ptr %6, i32 0, i32 4
  %8 = load i8, ptr %7, align 8
  %9 = trunc i8 %8 to i1
  br i1 %9, label %33, label %10

10:                                               ; preds = %2
  %11 = load ptr, ptr %4, align 8
  %12 = call { <2 x float>, <2 x float> } @_ZNK7nanogui5Color17contrasting_colorEv(ptr noundef nonnull align 4 dereferenceable(16) %11)
  %13 = getelementptr inbounds %"class.nanogui::Color", ptr %5, i32 0, i32 0
  %14 = getelementptr inbounds %"struct.nanogui::Array.4", ptr %13, i32 0, i32 0
  %15 = getelementptr inbounds { <2 x float>, <2 x float> }, ptr %14, i32 0, i32 0
  %16 = extractvalue { <2 x float>, <2 x float> } %12, 0
  store <2 x float> %16, ptr %15, align 4
  %17 = getelementptr inbounds { <2 x float>, <2 x float> }, ptr %14, i32 0, i32 1
  %18 = extractvalue { <2 x float>, <2 x float> } %12, 1
  store <2 x float> %18, ptr %17, align 4
  %19 = load ptr, ptr %4, align 8
  call void @_ZN7nanogui6Button20set_background_colorERKNS_5ColorE(ptr noundef nonnull align 8 dereferenceable(312) %6, ptr noundef nonnull align 4 dereferenceable(16) %19)
  call void @_ZN7nanogui6Button14set_text_colorERKNS_5ColorE(ptr noundef nonnull align 8 dereferenceable(312) %6, ptr noundef nonnull align 4 dereferenceable(16) %5)
  %20 = getelementptr inbounds %"class.nanogui::ColorPicker", ptr %6, i32 0, i32 3
  %21 = load ptr, ptr %20, align 8
  %22 = load ptr, ptr %4, align 8
  call void @_ZN7nanogui10ColorWheel9set_colorERKNS_5ColorE(ptr noundef nonnull align 8 dereferenceable(192) %21, ptr noundef nonnull align 4 dereferenceable(16) %22)
  %23 = getelementptr inbounds %"class.nanogui::ColorPicker", ptr %6, i32 0, i32 4
  %24 = load ptr, ptr %23, align 8
  %25 = load ptr, ptr %4, align 8
  call void @_ZN7nanogui6Button20set_background_colorERKNS_5ColorE(ptr noundef nonnull align 8 dereferenceable(312) %24, ptr noundef nonnull align 4 dereferenceable(16) %25)
  %26 = getelementptr inbounds %"class.nanogui::ColorPicker", ptr %6, i32 0, i32 4
  %27 = load ptr, ptr %26, align 8
  call void @_ZN7nanogui6Button14set_text_colorERKNS_5ColorE(ptr noundef nonnull align 8 dereferenceable(312) %27, ptr noundef nonnull align 4 dereferenceable(16) %5)
  %28 = getelementptr inbounds %"class.nanogui::ColorPicker", ptr %6, i32 0, i32 5
  %29 = load ptr, ptr %28, align 8
  %30 = load ptr, ptr %4, align 8
  call void @_ZN7nanogui6Button20set_background_colorERKNS_5ColorE(ptr noundef nonnull align 8 dereferenceable(312) %29, ptr noundef nonnull align 4 dereferenceable(16) %30)
  %31 = getelementptr inbounds %"class.nanogui::ColorPicker", ptr %6, i32 0, i32 5
  %32 = load ptr, ptr %31, align 8
  call void @_ZN7nanogui6Button14set_text_colorERKNS_5ColorE(ptr noundef nonnull align 8 dereferenceable(312) %32, ptr noundef nonnull align 4 dereferenceable(16) %5)
  br label %33

33:                                               ; preds = %10, %2
  ret void
}