; Function Attrs: mustprogress uwtable
define hidden void @_ZN7nanogui11ColorPicker9set_colorERKNS_5ColorE(ptr nocapture noundef nonnull align 8 dereferenceable(416) %0, ptr noundef nonnull align 4 dereferenceable(16) %1) local_unnamed_addr #0 align 2 {
  %3 = alloca %"struct.nanogui::Array.21", align 8
  %4 = alloca %"class.nanogui::Color", align 4
  %5 = getelementptr inbounds i8, ptr %0, i64 184
  %6 = load i8, ptr %5, align 8
  %7 = and i8 %6, 1
  %.not = icmp eq i8 %7, 0
  br i1 %.not, label %8, label %40

8:                                                ; preds = %2
  call void @llvm.lifetime.start.p0(i64 16, ptr nonnull %4)
  %.sroa.2.0..sroa_idx.i.i = getelementptr inbounds i8, ptr %4, i64 4
  store <2 x float> <float 0x3FE2C8B440000000, float 0x3FC26E9780000000>, ptr %.sroa.2.0..sroa_idx.i.i, align 4
  %.sroa.4.0..sroa_idx.i.i = getelementptr inbounds i8, ptr %4, i64 12
  store float 0.000000e+00, ptr %.sroa.4.0..sroa_idx.i.i, align 4
  %9 = load float, ptr %1, align 4
  %10 = fmul float %9, 0x3FD322D0E0000000
  br label %11

11:                                               ; preds = %11, %8
  %.011.i.i = phi i64 [ 1, %8 ], [ %17, %11 ]
  %.0910.i.i = phi float [ %10, %8 ], [ %16, %11 ]
  %12 = getelementptr inbounds [4 x float], ptr %1, i64 0, i64 %.011.i.i
  %13 = load float, ptr %12, align 4
  %14 = getelementptr inbounds [4 x float], ptr %4, i64 0, i64 %.011.i.i
  %15 = load float, ptr %14, align 4
  %16 = tail call float @llvm.fmuladd.f32(float %13, float %15, float %.0910.i.i)
  %17 = add nuw nsw i64 %.011.i.i, 1
  %exitcond.not.i.i = icmp eq i64 %17, 4
  br i1 %exitcond.not.i.i, label %_ZN7nanogui3dotIfLm4EEET_RKNS_5ArrayIS1_XT0_EEES5_.exit.i, label %11, !llvm.loop !5

_ZN7nanogui3dotIfLm4EEET_RKNS_5ArrayIS1_XT0_EEES5_.exit.i: ; preds = %11
  %18 = fcmp olt float %16, 5.000000e-01
  %19 = select i1 %18, float 1.000000e+00, float 0.000000e+00
  call void @llvm.lifetime.start.p0(i64 12, ptr nonnull %3)
  br label %20

20:                                               ; preds = %20, %_ZN7nanogui3dotIfLm4EEET_RKNS_5ArrayIS1_XT0_EEES5_.exit.i
  %.04.i.i.i = phi i64 [ 0, %_ZN7nanogui3dotIfLm4EEET_RKNS_5ArrayIS1_XT0_EEES5_.exit.i ], [ %22, %20 ]
  %21 = getelementptr inbounds [3 x float], ptr %3, i64 0, i64 %.04.i.i.i
  store float %19, ptr %21, align 4
  %22 = add nuw nsw i64 %.04.i.i.i, 1
  %exitcond.not.i.i.i = icmp eq i64 %22, 3
  br i1 %exitcond.not.i.i.i, label %_ZNK7nanogui5Color17contrasting_colorEv.exit, label %20, !llvm.loop !7

_ZNK7nanogui5Color17contrasting_colorEv.exit:     ; preds = %20
  %23 = load <2 x float>, ptr %3, align 8
  %24 = getelementptr inbounds i8, ptr %3, i64 8
  %25 = load float, ptr %24, align 8
  %.sroa.3.12.vec.insert.i = insertelement <2 x float> <float poison, float 1.000000e+00>, float %25, i64 0
  call void @llvm.lifetime.end.p0(i64 12, ptr nonnull %3)
  call void @llvm.lifetime.end.p0(i64 16, ptr nonnull %4)
  %26 = getelementptr inbounds i8, ptr %0, i64 192
  tail call void @llvm.memcpy.p0.p0.i64(ptr noundef nonnull align 8 dereferenceable(16) %26, ptr noundef nonnull align 4 dereferenceable(16) %1, i64 16, i1 false)
  %27 = getelementptr inbounds i8, ptr %0, i64 208
  store <2 x float> %23, ptr %27, align 8
  %.sroa.4.0..sroa_idx = getelementptr inbounds i8, ptr %0, i64 216
  store <2 x float> %.sroa.3.12.vec.insert.i, ptr %.sroa.4.0..sroa_idx, align 8
  %28 = getelementptr inbounds i8, ptr %0, i64 392
  %29 = load ptr, ptr %28, align 8
  tail call void @_ZN7nanogui10ColorWheel9set_colorERKNS_5ColorE(ptr noundef nonnull align 8 dereferenceable(192) %29, ptr noundef nonnull align 4 dereferenceable(16) %1)
  %30 = getelementptr inbounds i8, ptr %0, i64 400
  %31 = load ptr, ptr %30, align 8
  %32 = getelementptr inbounds i8, ptr %31, i64 192
  tail call void @llvm.memcpy.p0.p0.i64(ptr noundef nonnull align 8 dereferenceable(16) %32, ptr noundef nonnull align 4 dereferenceable(16) %1, i64 16, i1 false)
  %33 = load ptr, ptr %30, align 8
  %34 = getelementptr inbounds i8, ptr %33, i64 208
  store <2 x float> %23, ptr %34, align 8
  %.sroa.4.0..sroa_idx8 = getelementptr inbounds i8, ptr %33, i64 216
  store <2 x float> %.sroa.3.12.vec.insert.i, ptr %.sroa.4.0..sroa_idx8, align 8
  %35 = getelementptr inbounds i8, ptr %0, i64 408
  %36 = load ptr, ptr %35, align 8
  %37 = getelementptr inbounds i8, ptr %36, i64 192
  tail call void @llvm.memcpy.p0.p0.i64(ptr noundef nonnull align 8 dereferenceable(16) %37, ptr noundef nonnull align 4 dereferenceable(16) %1, i64 16, i1 false)
  %38 = load ptr, ptr %35, align 8
  %39 = getelementptr inbounds i8, ptr %38, i64 208
  store <2 x float> %23, ptr %39, align 8
  %.sroa.4.0..sroa_idx10 = getelementptr inbounds i8, ptr %38, i64 216
  store <2 x float> %.sroa.3.12.vec.insert.i, ptr %.sroa.4.0..sroa_idx10, align 8
  br label %40

40:                                               ; preds = %_ZNK7nanogui5Color17contrasting_colorEv.exit, %2
  ret void
}